target datalayout = "e-m:e-p270:32:32-p271:32:32-p272:64:64-i64:64-i128:128-f80:128-n8:16:32:64-S128"
target triple = "x86_64-pc-linux-gnu"

%struct.AVFilterContext = type { ptr, ptr, ptr, ptr, ptr, i32, ptr, ptr, i32, ptr, ptr, i32, i32, ptr, ptr, ptr, ptr, i32, ptr, i32, i32 }
%struct.DeflickerContext = type { ptr, i32, i32, i32, i32, i32, i32, [4 x i32], [4 x i32], ptr, [129 x float], [129 x float], %struct.FFBufQueue, i32, ptr, ptr, ptr }
%struct.FFBufQueue = type { [129 x ptr], i16, i16 }
%struct.AVFilterLink = type { ptr, ptr, ptr, ptr, i32, i32, i32, i32, %struct.AVRational, i32, i32, i32, %struct.AVChannelLayout, %struct.AVRational, ptr, i32, %struct.AVFilterFormatsConfig, %struct.AVFilterFormatsConfig }
%struct.AVChannelLayout = type { i32, i32, %union.anon.1, ptr }
%union.anon.1 = type { i64 }
%struct.AVRational = type { i32, i32 }
%struct.AVFilterFormatsConfig = type { ptr, ptr, ptr, ptr, ptr }

; Function Attrs: inlinehint nounwind uwtable
define internal ptr @ff_bufqueue_peek(ptr noundef %0, i32 noundef %1) #3 {
  %3 = alloca ptr, align 8
  %4 = alloca i32, align 4
  store ptr %0, ptr %3, align 8, !tbaa !74
  store i32 %1, ptr %4, align 4, !tbaa !54
  %5 = load i32, ptr %4, align 4, !tbaa !54
  %6 = load ptr, ptr %3, align 8, !tbaa !74
  %7 = getelementptr inbounds nuw %struct.FFBufQueue, ptr %6, i32 0, i32 2
  %8 = load i16, ptr %7, align 2, !tbaa !77
  %9 = zext i16 %8 to i32
  %10 = icmp ult i32 %5, %9
  br i1 %10, label %11, label %24

11:                                               ; preds = %2
  %12 = load ptr, ptr %3, align 8, !tbaa !74
  %13 = getelementptr inbounds nuw %struct.FFBufQueue, ptr %12, i32 0, i32 0
  %14 = load ptr, ptr %3, align 8, !tbaa !74
  %15 = getelementptr inbounds nuw %struct.FFBufQueue, ptr %14, i32 0, i32 1
  %16 = load i16, ptr %15, align 8, !tbaa !76
  %17 = zext i16 %16 to i32
  %18 = load i32, ptr %4, align 4, !tbaa !54
  %19 = add i32 %17, %18
  %20 = urem i32 %19, 129
  %21 = zext i32 %20 to i64
  %22 = getelementptr inbounds nuw [129 x ptr], ptr %13, i64 0, i64 %21
  %23 = load ptr, ptr %22, align 8, !tbaa !26
  br label %25

24:                                               ; preds = %2
  br label %25

25:                                               ; preds = %24, %11
  %26 = phi ptr [ %23, %11 ], [ null, %24 ]
  ret ptr %26
}

; Function Attrs: nounwind uwtable
define internal i32 @request_frame(ptr noundef %0) #1 {
  %2 = alloca i32, align 4
  %3 = alloca ptr, align 8
  %4 = alloca ptr, align 8
  %5 = alloca ptr, align 8
  %6 = alloca i32, align 4
  %7 = alloca ptr, align 8
  %8 = alloca i32, align 4
  store ptr %0, ptr %3, align 8, !tbaa !24
  call void @llvm.lifetime.start.p0(i64 8, ptr %4) #13
  %9 = load ptr, ptr %3, align 8, !tbaa !24
  %10 = getelementptr inbounds nuw %struct.AVFilterLink, ptr %9, i32 0, i32 0
  %11 = load ptr, ptr %10, align 8, !tbaa !107
  store ptr %11, ptr %4, align 8, !tbaa !4
  call void @llvm.lifetime.start.p0(i64 8, ptr %5) #13
  %12 = load ptr, ptr %4, align 8, !tbaa !4
  %13 = getelementptr inbounds nuw %struct.AVFilterContext, ptr %12, i32 0, i32 9
  %14 = load ptr, ptr %13, align 8, !tbaa !9
  store ptr %14, ptr %5, align 8, !tbaa !22
  call void @llvm.lifetime.start.p0(i64 4, ptr %6) #13
  %15 = load ptr, ptr %4, align 8, !tbaa !4
  %16 = getelementptr inbounds nuw %struct.AVFilterContext, ptr %15, i32 0, i32 4
  %17 = load ptr, ptr %16, align 8, !tbaa !108
  %18 = getelementptr inbounds ptr, ptr %17, i64 0
  %19 = load ptr, ptr %18, align 8, !tbaa !24
  %20 = call i32 @ff_request_frame(ptr noundef %19)
  store i32 %20, ptr %6, align 4, !tbaa !54
  %21 = load i32, ptr %6, align 4, !tbaa !54
  %22 = icmp eq i32 %21, -541478725
  br i1 %22, label %23, label %62

23:                                               ; preds = %1
  %24 = load ptr, ptr %5, align 8, !tbaa !22
  %25 = getelementptr inbounds nuw %struct.DeflickerContext, ptr %24, i32 0, i32 13
  %26 = load i32, ptr %25, align 8, !tbaa !45
  %27 = icmp sgt i32 %26, 0
  br i1 %27, label %28, label %62

28:                                               ; preds = %23
  call void @llvm.lifetime.start.p0(i64 8, ptr %7) #13
  %29 = load ptr, ptr %5, align 8, !tbaa !22
  %30 = getelementptr inbounds nuw %struct.DeflickerContext, ptr %29, i32 0, i32 12
  %31 = load ptr, ptr %5, align 8, !tbaa !22
  %32 = getelementptr inbounds nuw %struct.DeflickerContext, ptr %31, i32 0, i32 13
  %33 = load i32, ptr %32, align 8, !tbaa !45
  %34 = sub nsw i32 %33, 1
  %35 = call ptr @ff_bufqueue_peek(ptr noundef %30, i32 noundef %34)
  store ptr %35, ptr %7, align 8, !tbaa !26
  %36 = load ptr, ptr %7, align 8, !tbaa !26
  %37 = icmp ne ptr %36, null
  br i1 %37, label %39, label %38

38:                                               ; preds = %28
  store i32 -12, ptr %2, align 4
  store i32 1, ptr %8, align 4
  br label %59

39:                                               ; preds = %28
  %40 = load ptr, ptr %7, align 8, !tbaa !26
  %41 = call ptr @av_frame_clone(ptr noundef %40)
  store ptr %41, ptr %7, align 8, !tbaa !26
  %42 = load ptr, ptr %7, align 8, !tbaa !26
  %43 = icmp ne ptr %42, null
  br i1 %43, label %45, label %44

44:                                               ; preds = %39
  store i32 -12, ptr %2, align 4
  store i32 1, ptr %8, align 4
  br label %59

45:                                               ; preds = %39
  %46 = load ptr, ptr %5, align 8, !tbaa !22
  %47 = getelementptr inbounds nuw %struct.DeflickerContext, ptr %46, i32 0, i32 4
  store i32 1, ptr %47, align 4, !tbaa !43
  %48 = load ptr, ptr %4, align 8, !tbaa !4
  %49 = getelementptr inbounds nuw %struct.AVFilterContext, ptr %48, i32 0, i32 4
  %50 = load ptr, ptr %49, align 8, !tbaa !108
  %51 = getelementptr inbounds ptr, ptr %50, i64 0
  %52 = load ptr, ptr %51, align 8, !tbaa !24
  %53 = load ptr, ptr %7, align 8, !tbaa !26
  %54 = call i32 @filter_frame(ptr noundef %52, ptr noundef %53)
  store i32 %54, ptr %6, align 4, !tbaa !54
  %55 = load ptr, ptr %5, align 8, !tbaa !22
  %56 = getelementptr inbounds nuw %struct.DeflickerContext, ptr %55, i32 0, i32 13
  %57 = load i32, ptr %56, align 8, !tbaa !45
  %58 = add nsw i32 %57, -1
  store i32 %58, ptr %56, align 8, !tbaa !45
  store i32 0, ptr %8, align 4
  br label %59

59:                                               ; preds = %45, %44, %38
  call void @llvm.lifetime.end.p0(i64 8, ptr %7) #13
  %60 = load i32, ptr %8, align 4
  switch i32 %60, label %64 [
    i32 0, label %61
  ]

61:                                               ; preds = %59
  br label %62

62:                                               ; preds = %61, %23, %1
  %63 = load i32, ptr %6, align 4, !tbaa !54
  store i32 %63, ptr %2, align 4
  store i32 1, ptr %8, align 4
  br label %64

64:                                               ; preds = %62, %59
  call void @llvm.lifetime.end.p0(i64 4, ptr %6) #13
  call void @llvm.lifetime.end.p0(i64 8, ptr %5) #13
  call void @llvm.lifetime.end.p0(i64 8, ptr %4) #13
  %65 = load i32, ptr %2, align 4
  ret i32 %65
}