; Function Attrs: nounwind uwtable
define internal i32 @request_frame(ptr noundef readonly captures(none) %0) #1 {
  %2 = load ptr, ptr %0, align 8, !tbaa !93
  %3 = getelementptr inbounds nuw i8, ptr %2, i64 72
  %4 = load ptr, ptr %3, align 8, !tbaa !4
  %5 = getelementptr inbounds nuw i8, ptr %2, i64 32
  %6 = load ptr, ptr %5, align 8, !tbaa !94
  %7 = load ptr, ptr %6, align 8, !tbaa !38
  %8 = tail call i32 @ff_request_frame(ptr noundef %7) #14
  %9 = icmp eq i32 %8, -541478725
  br i1 %9, label %10, label %.thread

10:                                               ; preds = %1
  %11 = getelementptr inbounds nuw i8, ptr %4, i64 2144
  %12 = load i32, ptr %11, align 8, !tbaa !46
  %13 = icmp sgt i32 %12, 0
  br i1 %13, label %14, label %.thread

14:                                               ; preds = %10
  %15 = add nsw i32 %12, -1
  %16 = getelementptr inbounds nuw i8, ptr %4, i64 2138
  %17 = load i16, ptr %16, align 2, !tbaa !20
  %18 = zext i16 %17 to i32
  %19 = icmp samesign ult i32 %15, %18
  br i1 %19, label %ff_bufqueue_peek.exit, label %.thread

ff_bufqueue_peek.exit:                            ; preds = %14
  %20 = getelementptr inbounds nuw i8, ptr %4, i64 1104
  %21 = getelementptr inbounds nuw i8, ptr %4, i64 2136
  %22 = load i16, ptr %21, align 8, !tbaa !23
  %23 = zext i16 %22 to i32
  %24 = add nuw nsw i32 %15, %23
  %25 = urem i32 %24, 129
  %26 = zext nneg i32 %25 to i64
  %27 = getelementptr inbounds nuw [129 x ptr], ptr %20, i64 0, i64 %26
  %28 = load ptr, ptr %27, align 8, !tbaa !24
  %.not = icmp eq ptr %28, null
  br i1 %.not, label %.thread, label %29

29:                                               ; preds = %ff_bufqueue_peek.exit
  %30 = tail call ptr @av_frame_clone(ptr noundef nonnull %28) #14
  %.not24 = icmp eq ptr %30, null
  br i1 %.not24, label %.thread, label %31

31:                                               ; preds = %29
  %32 = getelementptr inbounds nuw i8, ptr %4, i64 20
  store i32 1, ptr %32, align 4, !tbaa !44
  %33 = load ptr, ptr %5, align 8, !tbaa !94
  %34 = load ptr, ptr %33, align 8, !tbaa !38
  %35 = tail call i32 @filter_frame(ptr noundef %34, ptr noundef nonnull %30)
  %36 = load i32, ptr %11, align 8, !tbaa !46
  %37 = add nsw i32 %36, -1
  store i32 %37, ptr %11, align 8, !tbaa !46
  br label %.thread

.thread:                                          ; preds = %14, %29, %ff_bufqueue_peek.exit, %31, %1, %10
  %.118 = phi i32 [ -541478725, %10 ], [ %8, %1 ], [ %35, %31 ], [ -12, %ff_bufqueue_peek.exit ], [ -12, %29 ], [ -12, %14 ]
  ret i32 %.118
}